0000000000000000 00pi0tbb0sw8swmdy5l7agcl9
0000000000000000 01zxylxwfmme4ro2gmk084as2
0000000000000000 036i2n3cosyfz4huvd5iud28q
0000000000000000 0asrfp2n81qvi18c6mep9wsni
0000000000000000 0c58yna2lkxh5l0i3l88y3j9j
0000000000000000 0e3fwtegyebis9if8xs4znalh
0000000000000000 0fxgp1ccnr03wamwzp5huqjd6
0000000000000000 0kk9tu8bg4zeq04cdzgfqjrys
0000000000000000 0me3qb9r5cdknct363zlf5c5e
0000000000000000 16hbxo4yc2geru8v8pb839b7i
0000000000000000 1bi6c7g040k9bzgqnv24w6k0k
0000000000000000 1fqfc9cq0ec7dbx400wpsm0b8
0000000000000000 1jp0qlw67wcsr0rvv3z40nn3f
0000000000000000 1tvs4oahkobm5wyx3rog3z1lx
0000000000000000 1vkpt6knbijd4nzgvgvnvd4l0
0000000000000000 1xuf6qgluhhka6y7c87p4tmz5
0000000000000000 1zasbnbq6i6i6yxq41v7jxn6k
0000000000000000 2akw3uunm1akh7fl1zj9gxsjd
0000000000000000 2cfodjwmpls00s052fh1d4c6t
0000000000000000 2ewrwlp8vi57sjmys1b0q2ucd
0000000000000000 2krb5nmxu9c0i6fjdxuvdic5f
0000000000000000 2v9yi85u47nv1doh8clhyv7e0
0000000000000000 2xfxlnbryxg4s1vnghu7b6qja
0000000000000000 2xr5pbfgwrif9odc9mode9sx5
0000000000000000 37ui7176j6367f6m6f6n6mc3n
0000000000000000 3cxv083o6kb3agtm48p7gp5dr
0000000000000000 3d88l2up6p031i351zgy6ju0y
0000000000000000 3qcdisbp0jifctlkns1bgy6f8
0000000000000000 3vf0outlnxa8882q5roo2z51m
0000000000000000 3w6wq92ms3knzsvf3vm27ht71
0000000000000000 4di5qeohpqs7bgz62np7j5yjv
0000000000000000 4fjo3u31v66mk3cx9vn14rbwn
0000000000000000 4haery4uw9dijdnm76f1d6q16
0000000000000000 4mhpaa5oc63ufzpk7o9ulqajm
0000000000000000 508jphyaysj5arj65t0ivsg01
0000000000000000 54cqs4g9pnvvi83i4wh99wpul
0000000000000000 5g9hlgg0guajhdsq0ej0d02it
0000000000000000 5n872srit0h8ukrvht6gn4smw
0000000000000000 5pih76sclx64ssdv2xn747g4r
0000000000000000 60nta0kk59clq6v1uz8aued31
0000000000000000 63jkmt5hy651jp6k1hao80frv
0000000000000000 65lsx0xyhrdr79ndofwjpz3oj
0000000000000000 685vi4ju3trxc3pem687buvnv
0000000000000000 6k6mwigcj1k61ktugoz0rbfbc
0000000000000000 6n7ysz327s0uocoiwqtfuxm6f
0000000000000000 6povonsfwcbsfb61q7m6qefkz
0000000000000000 6r3977ajvxs7cq9llsfj2cewf
0000000000000000 6vgrob56k05zcjnauz5zovwh1
0000000000000000 6wk8zxghk4b03gp16cz9g7ph5
0000000000000000 79dqouvz71gkiwgbjynf7lbo7
0000000000000000 7g71mqgh9yzygnrygmyj377ec
0000000000000000 7iokvuft9l9c97o0pxb6yv94l
0000000000000000 7jv6k6dqs1ynf7ez21g3ytfga
0000000000000000 7o0flhx7g937rlf2s5e72aztc
0000000000000000 7qosojzwg2qi7o9p6xmqqhwe9
0000000000000000 7scybk8biur1z6nf7knuyxxt4
0000000000000000 7xajrsvqv1ghucu0xlcjpgzo7
0000000000000000 82rq6ewwg5d74yl816r5j6tz9
0000000000000000 8p56cu6f0o8jyw3dj8fr2shpm
0000000000000000 8vju7an2hj7rscjh6322v63ys
0000000000000000 920mr5s6xkl3lvum2buqnorrl
0000000000000000 9cfis74blt51nfpvsvmgx30pp
0000000000000000 9db6vpqirvc0lpx1mwqhs7p5f
0000000000000000 9jduv9dlstl0wi3jr9eehz5br
0000000000000000 9o3wpv7zg186wfqm1qv19uwka
0000000000000000 a2ue35b0ml218cdpv6sjh2f45
0000000000000000 a32rb8qnnmenrb4605c49rtkv
0000000000000000 a9yhivcby8vf051zddnlvcve0
0000000000000000 aulsls1oy8xr3rxk8dxek7p7m
0000000000000000 awob5junbrmuxcuyvsfkoww4k
0000000000000000 axtdluejhmk8w1hqkskjkcq6j
0000000000000000 ay2hacm5xueljr1c2kv1mzv0x
0000000000000000 aybgq8rk32z6ql8q6jea7j09z
0000000000000000 b06ydwkkrtlcmuwnm1km0mpfu
0000000000000000 b0n857u1e9uioxxjw1a3sha66
0000000000000000 be1tju1ry7sp71xmbprqkvzwp
0000000000000000 bf8xn7dn5a0g8y7ct2upnshu1
0000000000000000 bhtolmou5m34sk64ltfndww88
0000000000000000 bv9ifh3qn7zmg1wpl8e0btlpg
0000000000000000 byn0v4d57o9tim49n6kx08ww4
0000000000000000 c21cqb2z6o2x7cfks71lr31q0
0000000000000000 c49mzkkw74x4echrq6ara1wti
0000000000000000 c5w5pr21stlm1geodwtbq7fos
0000000000000000 cht2f1d4w3a6gm7ekijxaqe6f
0000000000000000 cj6u8v5dtchjn3yavqvrf5q00
0000000000000000 clllwqqxdoh8cv3mlfvwgrcgh
0000000000000000 compiler_builtins.a625f190c1cce357-cgu.000
0000000000000000 compiler_builtins.a625f190c1cce357-cgu.003
0000000000000000 compiler_builtins.a625f190c1cce357-cgu.176
0000000000000000 compiler_builtins.a625f190c1cce357-cgu.179
0000000000000000 compiler_builtins.a625f190c1cce357-cgu.201
0000000000000000 compiler_builtins.a625f190c1cce357-cgu.233
0000000000000000 compiler_builtins.a625f190c1cce357-cgu.256
0000000000000000 compiler_builtins.a625f190c1cce357-cgu.268
0000000000000000 compiler_builtins.a625f190c1cce357-cgu.275
0000000000000000 compiler_builtins.a625f190c1cce357-cgu.284
0000000000000000 compiler_builtins.a625f190c1cce357-cgu.309
0000000000000000 compiler_builtins.a625f190c1cce357-cgu.315
0000000000000000 compiler_builtins.a625f190c1cce357-cgu.318
0000000000000000 compiler_builtins.a625f190c1cce357-cgu.328
0000000000000000 compiler_builtins.a625f190c1cce357-cgu.335
0000000000000000 compiler_builtins.a625f190c1cce357-cgu.346
0000000000000000 compiler_builtins.a625f190c1cce357-cgu.352
0000000000000000 compiler_builtins.a625f190c1cce357-cgu.357
0000000000000000 compiler_builtins.a625f190c1cce357-cgu.361
0000000000000000 core.bb170dea1013a3a3-cgu.0
0000000000000000 ctqlhhgzhznkeybzs6r6vjxut
0000000000000000 cwvz9mlo0huem4bniv1lfurxt
0000000000000000 d097vf9diym4v36q9uiapkaxm
0000000000000000 dayzk3g2o1tcv3o4n66v0f70z
0000000000000000 dekspiadychi7aagkdikya3kw
0000000000000000 depxvydbl9f63fuwl4l67d4vl
0000000000000000 dhjx27f8yw7n41p609gjf9jxs
0000000000000000 dyiueq1mrr0falcr8ar1b1qdv
0000000000000000 dznfk5owz9wh2sd3eduzlwjra
0000000000000000 e35dxak3q73l0pti1oxo5sm5m
0000000000000000 eqerp6ntoa6biwz6764v1js9n
0000000000000000 eyni5tjiehvanbf4cipkwn6fj
0000000000000000 f4g6aqvoc0ijjok4i5jm9tprh
0000000000000001 PTE_P
0000000000000002 CR0_MP
0000000000000002 PTE_W
0000000000000040 _binary_initcode_size
0000000000000072 _binary_entryother_size
0000000000000080 PTE_PS
0000000000010000 CR0_WP
0000000000010000 mboot_flags
0000000000100000 mboot_load_addr
0000000000100020 mboot_entry_addr
000000000011b000 mboot_bss_end
000000000011b000 mboot_load_end
000000001badb002 mboot_magic
0000000080000000 CR0_PG
00000000c0000080 MSR_EFER
ffff800000100000 begin
ffff800000100000 mboot_header
ffff800000100020 mboot_entry
ffff80000010004f entry32mp
ffff800000100090 gdtr64
ffff8000001000a0 gdt64_begin
ffff8000001000b8 gdt64_end
ffff8000001000c0 entry64low
ffff8000001000cc _start
ffff8000001000cc entry64high
ffff8000001000ef __deadloop
ffff8000001000f1 entry64mp
ffff800000100101 wrmsr
ffff800000100111 ignore_sysret
ffff80000010011b swtch
ffff80000010013a alltraps
ffff800000100159 trapret
ffff800000100176 syscall_entry
ffff8000001001c9 syscall_trapret
ffff8000001001ec vector0
ffff8000001001f5 vector1
ffff8000001001fe vector2
ffff800000100207 vector3
ffff800000100210 vector4
ffff800000100219 vector5
ffff800000100222 vector6
ffff80000010022b vector7
ffff800000100234 vector8
ffff80000010023b vector9
ffff800000100244 vector10
ffff80000010024b vector11
ffff800000100252 vector12
ffff800000100259 vector13
ffff800000100260 vector14
ffff800000100267 vector15
ffff800000100270 vector16
ffff800000100279 vector17
ffff800000100280 vector18
ffff800000100289 vector19
ffff800000100292 vector20
ffff80000010029b vector21
ffff8000001002a4 vector22
ffff8000001002ad vector23
ffff8000001002b6 vector24
ffff8000001002bf vector25
ffff8000001002c8 vector26
ffff8000001002d1 vector27
ffff8000001002da vector28
ffff8000001002e3 vector29
ffff8000001002ec vector30
ffff8000001002f5 vector31
ffff8000001002fe vector32
ffff800000100307 vector33
ffff800000100310 vector34
ffff800000100319 vector35
ffff800000100322 vector36
ffff80000010032b vector37
ffff800000100334 vector38
ffff80000010033d vector39
ffff800000100346 vector40
ffff80000010034f vector41
ffff800000100358 vector42
ffff800000100361 vector43
ffff80000010036a vector44
ffff800000100373 vector45
ffff80000010037c vector46
ffff800000100385 vector47
ffff80000010038e vector48
ffff800000100397 vector49
ffff8000001003a0 vector50
ffff8000001003a9 vector51
ffff8000001003b2 vector52
ffff8000001003bb vector53
ffff8000001003c4 vector54
ffff8000001003cd vector55
ffff8000001003d6 vector56
ffff8000001003df vector57
ffff8000001003e8 vector58
ffff8000001003f1 vector59
ffff8000001003fa vector60
ffff800000100403 vector61
ffff80000010040c vector62
ffff800000100415 vector63
ffff80000010041e vector64
ffff800000100427 vector65
ffff800000100430 vector66
ffff800000100439 vector67
ffff800000100442 vector68
ffff80000010044b vector69
ffff800000100454 vector70
ffff80000010045d vector71
ffff800000100466 vector72
ffff80000010046f vector73
ffff800000100478 vector74
ffff800000100481 vector75
ffff80000010048a vector76
ffff800000100493 vector77
ffff80000010049c vector78
ffff8000001004a5 vector79
ffff8000001004ae vector80
ffff8000001004b7 vector81
ffff8000001004c0 vector82
ffff8000001004c9 vector83
ffff8000001004d2 vector84
ffff8000001004db vector85
ffff8000001004e4 vector86
ffff8000001004ed vector87
ffff8000001004f6 vector88
ffff8000001004ff vector89
ffff800000100508 vector90
ffff800000100511 vector91
ffff80000010051a vector92
ffff800000100523 vector93
ffff80000010052c vector94
ffff800000100535 vector95
ffff80000010053e vector96
ffff800000100547 vector97
ffff800000100550 vector98
ffff800000100559 vector99
ffff800000100562 vector100
ffff80000010056b vector101
ffff800000100574 vector102
ffff80000010057d vector103
ffff800000100586 vector104
ffff80000010058f vector105
ffff800000100598 vector106
ffff8000001005a1 vector107
ffff8000001005aa vector108
ffff8000001005b3 vector109
ffff8000001005bc vector110
ffff8000001005c5 vector111
ffff8000001005ce vector112
ffff8000001005d7 vector113
ffff8000001005e0 vector114
ffff8000001005e9 vector115
ffff8000001005f2 vector116
ffff8000001005fb vector117
ffff800000100604 vector118
ffff80000010060d vector119
ffff800000100616 vector120
ffff80000010061f vector121
ffff800000100628 vector122
ffff800000100631 vector123
ffff80000010063a vector124
ffff800000100643 vector125
ffff80000010064c vector126
ffff800000100655 vector127
ffff80000010065e vector128
ffff80000010066a vector129
ffff800000100676 vector130
ffff800000100682 vector131
ffff80000010068e vector132
ffff80000010069a vector133
ffff8000001006a6 vector134
ffff8000001006b2 vector135
ffff8000001006be vector136
ffff8000001006ca vector137
ffff8000001006d6 vector138
ffff8000001006e2 vector139
ffff8000001006ee vector140
ffff8000001006fa vector141
ffff800000100706 vector142
ffff800000100712 vector143
ffff80000010071e vector144
ffff80000010072a vector145
ffff800000100736 vector146
ffff800000100742 vector147
ffff80000010074e vector148
ffff80000010075a vector149
ffff800000100766 vector150
ffff800000100772 vector151
ffff80000010077e vector152
ffff80000010078a vector153
ffff800000100796 vector154
ffff8000001007a2 vector155
ffff8000001007ae vector156
ffff8000001007ba vector157
ffff8000001007c6 vector158
ffff8000001007d2 vector159
ffff8000001007de vector160
ffff8000001007ea vector161
ffff8000001007f6 vector162
ffff800000100802 vector163
ffff80000010080e vector164
ffff80000010081a vector165
ffff800000100826 vector166
ffff800000100832 vector167
ffff80000010083e vector168
ffff80000010084a vector169
ffff800000100856 vector170
ffff800000100862 vector171
ffff80000010086e vector172
ffff80000010087a vector173
ffff800000100886 vector174
ffff800000100892 vector175
ffff80000010089e vector176
ffff8000001008aa vector177
ffff8000001008b6 vector178
ffff8000001008c2 vector179
ffff8000001008ce vector180
ffff8000001008da vector181
ffff8000001008e6 vector182
ffff8000001008f2 vector183
ffff8000001008fe vector184
ffff80000010090a vector185
ffff800000100916 vector186
ffff800000100922 vector187
ffff80000010092e vector188
ffff80000010093a vector189
ffff800000100946 vector190
ffff800000100952 vector191
ffff80000010095e vector192
ffff80000010096a vector193
ffff800000100976 vector194
ffff800000100982 vector195
ffff80000010098e vector196
ffff80000010099a vector197
ffff8000001009a6 vector198
ffff8000001009b2 vector199
ffff8000001009be vector200
ffff8000001009ca vector201
ffff8000001009d6 vector202
ffff8000001009e2 vector203
ffff8000001009ee vector204
ffff8000001009fa vector205
ffff800000100a06 vector206
ffff800000100a12 vector207
ffff800000100a1e vector208
ffff800000100a2a vector209
ffff800000100a36 vector210
ffff800000100a42 vector211
ffff800000100a4e vector212
ffff800000100a5a vector213
ffff800000100a66 vector214
ffff800000100a72 vector215
ffff800000100a7e vector216
ffff800000100a8a vector217
ffff800000100a96 vector218
ffff800000100aa2 vector219
ffff800000100aae vector220
ffff800000100aba vector221
ffff800000100ac6 vector222
ffff800000100ad2 vector223
ffff800000100ade vector224
ffff800000100aea vector225
ffff800000100af6 vector226
ffff800000100b02 vector227
ffff800000100b0e vector228
ffff800000100b1a vector229
ffff800000100b26 vector230
ffff800000100b32 vector231
ffff800000100b3e vector232
ffff800000100b4a vector233
ffff800000100b56 vector234
ffff800000100b62 vector235
ffff800000100b6e vector236
ffff800000100b7a vector237
ffff800000100b86 vector238
ffff800000100b92 vector239
ffff800000100b9e vector240
ffff800000100baa vector241
ffff800000100bb6 vector242
ffff800000100bc2 vector243
ffff800000100bce vector244
ffff800000100bda vector245
ffff800000100be6 vector246
ffff800000100bf2 vector247
ffff800000100bfe vector248
ffff800000100c0a vector249
ffff800000100c16 vector250
ffff800000100c22 vector251
ffff800000100c2e vector252
ffff800000100c3a vector253
ffff800000100c46 vector254
ffff800000100c52 vector255
ffff800000100c60 _RNvMsa_NtCsg3SjgaGcPXb_4core3fmtNtB5_9Formatter12pad_integral
ffff800000100f80 _RNvNtCsg3SjgaGcPXb_4core6option13unwrap_failed
ffff800000100fa0 _RNvNtCsg3SjgaGcPXb_4core9panicking14panic_nounwind
ffff800000100fbb _RNvNtCsg3SjgaGcPXb_4core9panicking18panic_bounds_check
ffff800000101000 _RNvNtCsg3SjgaGcPXb_4core9panicking18panic_nounwind_fmt
ffff80000010102d _RNvNtCsg3SjgaGcPXb_4core9panicking30panic_null_pointer_dereference
ffff800000101046 _RNvNtCsg3SjgaGcPXb_4core9panicking36panic_misaligned_pointer_dereference
ffff800000101090 _RNvNtCsg3SjgaGcPXb_4core9panicking5panic
ffff8000001010b0 _RNvNtCsg3SjgaGcPXb_4core9panicking9panic_fmt
ffff8000001010e0 _RNvNtNtCsg3SjgaGcPXb_4core3str5count14do_count_chars
ffff8000001014a0 _RNvNtNtCsg3SjgaGcPXb_4core5slice5index16slice_index_fail
ffff800000101570 _RNvNtNtCsg3SjgaGcPXb_4core9panicking11panic_const24panic_const_add_overflow
ffff800000101590 _RNvNtNtCsg3SjgaGcPXb_4core9panicking11panic_const24panic_const_div_overflow
ffff8000001015b0 _RNvNtNtCsg3SjgaGcPXb_4core9panicking11panic_const24panic_const_mul_overflow
ffff8000001015d0 _RNvNtNtCsg3SjgaGcPXb_4core9panicking11panic_const24panic_const_shl_overflow
ffff8000001015f0 _RNvNtNtCsg3SjgaGcPXb_4core9panicking11panic_const24panic_const_sub_overflow
ffff800000101610 _RNvNvMsa_NtCsg3SjgaGcPXb_4core3fmtNtB7_9Formatter12pad_integral12write_prefix
ffff800000101670 _RNvNvNtCsg3SjgaGcPXb_4core5slice20copy_from_slice_impl17len_mismatch_fail
ffff8000001016b0 _RNvXs6_NtNtCsg3SjgaGcPXb_4core3fmt3numjNtB7_8LowerHex3fmt
ffff8000001016b0 _RNvXsC_NtNtCsg3SjgaGcPXb_4core3fmt3numyNtB7_8LowerHex3fmt
ffff800000101720 _RNvXsd_NtNtNtCsg3SjgaGcPXb_4core3fmt3num3impyNtB9_7Display3fmt
ffff800000101720 _RNvXsi_NtNtNtCsg3SjgaGcPXb_4core3fmt3num3impjNtB9_7Display3fmt
ffff800000101830 memcpy
ffff800000101860 _ZN4core4sync6atomic9AtomicU324load17hb7db583e69e072f0E
ffff800000101890 _ZN4core4sync6atomic9AtomicU325store17h97c6cf0626a92448E
ffff8000001018c0 _ZN6kernel4glue5binit17h267edc1ce9772857E
ffff8000001018d0 _ZN6kernel4glue5pinit17he6363b4d8b9efa95E
ffff8000001018e0 _ZN6kernel4glue7ideinit17h37f16da282a5ff8bE
ffff8000001018f0 _ZN6kernel4glue8fileinit17h3012f723a2ad70c6E
ffff800000101900 _ZN6kernel4glue8userinit17hddeb8f487b28a325E
ffff800000101910 _ZN6kernel4glue9scheduler17ha3f4bcb50d78eb82E
ffff800000101920 acquire
ffff8000001019c0 consoleinit
ffff800000101a60 consoleread
ffff800000101b50 consolewrite
ffff800000101c20 cpunum
ffff800000101c30 holding
ffff800000101cd0 ideintr
ffff800000101ce0 iderw
ffff800000101d00 initlock
ffff800000101e70 kalloc
ffff800000101e80 kbdintr
ffff800000101e90 kfree
ffff800000101eb0 memcmp
ffff800000102040 memmove
ffff8000001020d0 memset
ffff800000102160 my_proc_cwd
ffff800000102180 my_proc_killed
ffff8000001021a0 picinit
ffff8000001021d0 popcli
ffff8000001022f0 pushcli
ffff800000102440 release
ffff8000001024e0 sleep
ffff800000102500 uartinit
ffff800000102510 uartintr
ffff800000102520 _ZN4core3ptr7mut_ptr31_$LT$impl$u20$$BP$mut$u20$T$GT$6offset18precondition_check17hc0eacac0815a6b15E
ffff8000001025e0 _ZN4core3ptr7mut_ptr31_$LT$impl$u20$$BP$mut$u20$T$GT$7is_null17hdd3036b95f505e02E
ffff8000001025f0 _ZN4core3ptr11write_bytes18precondition_check17h293f48468040f691E
ffff800000102690 _ZN4core3ptr4copy18precondition_check17h0c76018f5587c707E
ffff8000001027d0 _RNvCsfLfy6EI15iL_7___rustc17rust_begin_unwind
ffff8000001027e0 _ZN6kernel11startothers17ha9253f50d931f3e9E
ffff800000102d80 main
ffff800000103010 mpenter
ffff800000103050 mpmain
ffff8000001030a0 _ZN4core4sync6atomic11atomic_load17ha974e3c8062fa827E
ffff800000103180 _ZN4core4sync6atomic12atomic_store17hc1fa1a1ae45d1437E
ffff800000103270 _ZN7syscall6argint17h0916317803b6dc7eE
ffff8000001032a0 _ZN7syscall6argptr17h69dc55abb889a388E
ffff800000103390 _ZN7syscall6argstr17hee4aecf0f29c7802E
ffff8000001033f0 _ZN7syscall7argaddr17he7d9cb19d2707169E
ffff800000103420 _ZN7syscall8fetcharg17hd3395fceb1a89616E
ffff800000103510 _ZN7syscall8fetchstr17hc5d5043d596a35b1E
ffff800000103650 syscall
ffff8000001037a0 _ZN4core3fmt9Arguments8from_str17h5043d9bc075943adE
ffff8000001037c0 _ZN7syscall7sysfile5argfd17h825fa70939716909E
ffff800000103900 _ZN7syscall7sysfile7fdalloc17h9339ba2165779863E
ffff800000103a10 _ZN7syscall7sysfile7sys_dup17h6ed6a495b329916cE
ffff800000103aa0 _ZN7syscall7sysfile8sys_exec17hd807f22ac7cd23c1E
ffff800000103e10 _ZN7syscall7sysfile8sys_pipe17h426414a86f3e8d63E
ffff800000104010 _ZN7syscall7sysfile8sys_read17hca864007979b020cE
ffff8000001040c0 _ZN7syscall7sysfile9sys_close17hb42b0f1bf358c769E
ffff800000104170 _ZN7syscall7sysfile9sys_fstat17hefa13e965b041b17E
ffff800000104200 _ZN7syscall7sysfile9sys_write17h27729409a6b917ebE
ffff8000001042b0 _ZN4core3ptr7mut_ptr31_$LT$impl$u20$$BP$mut$u20$T$GT$7is_null17hc4a3dfdd384ce689E
ffff8000001042c0 _ZN4core3ptr7mut_ptr31_$LT$impl$u20$$BP$mut$u20$T$GT$7is_null17hdcc57e79e8ac8c01E
ffff8000001042d0 _ZN4core6option15Option$LT$T$GT$7is_some17h4df4de138e13f7beE
ffff800000104300 _ZN4core4iter5range101_$LT$impl$u20$core..iter..traits..iterator..Iterator$u20$for$u20$core..ops..range..Range$LT$A$GT$$GT$4next17ha1bf3be510b436c5E
ffff800000104320 _ZN63_$LT$I$u20$as$u20$core..iter..traits..collect..IntoIterator$GT$9into_iter17h4983888ed247b433E
ffff800000104340 _ZN89_$LT$core..ops..range..Range$LT$T$GT$$u20$as$u20$core..iter..range..RangeIteratorImpl$GT$9spec_next17he9d3d9414cde2eeaE
ffff8000001043d0 _ZN47_$LT$u64$u20$as$u20$core..iter..range..Step$GT$17forward_unchecked17ha978c88f940c7e59E
ffff800000104420 _ZN7syscall7sysproc10sys_getpid17hfde1125229f2bfb4E
ffff800000104450 _ZN7syscall7sysproc10sys_uptime17h216450ecb9493432E
ffff800000104460 _ZN7syscall7sysproc8sys_exit17h7211f6dc39f66e5cE
ffff800000104470 _ZN7syscall7sysproc8sys_fork17hee8d3b13e69f57d6E
ffff800000104490 _ZN7syscall7sysproc8sys_kill17he44fe4e393de4988E
ffff8000001044f0 _ZN7syscall7sysproc8sys_sbrk17h21313f27d0f743b9E
ffff800000104580 _ZN7syscall7sysproc8sys_wait17ha8db3031d7314ed5E
ffff8000001045a0 _ZN7syscall7sysproc9sys_sleep17h17912062dd24159cE
ffff800000104600 _ZN4core3ptr7mut_ptr31_$LT$impl$u20$$BP$mut$u20$T$GT$7is_null17h2118e2934465e057E
ffff800000104610 _ZN4core3num21_$LT$impl$u20$u64$GT$13unchecked_add18precondition_check17h5efc99c29d4fd393E
ffff800000104670 _ZN7console7cgaputc17he51c9d0aa2244c4aE
ffff800000104b30 _ZN7console8consputc17habc41fb8620b9568E
ffff800000104ba0 consoleintr
ffff800000104e40 _ZN4core3ptr11write_bytes18precondition_check17hf4101f06593a074fE
ffff800000104ee0 _ZN4core3ptr4copy18precondition_check17hd19a16444b2bc1c8E
ffff800000105020 _ZN4core3ptr66drop_in_place$LT$sync..spinlock..SpinlockGuard$LT$$LP$$RP$$GT$$GT$17h0f15c38b1af3a638E
ffff800000105040 _ZN80_$LT$sync..spinlock..SpinlockGuard$LT$T$GT$$u20$as$u20$core..ops..drop..Drop$GT$4drop17h9196ccdff5c4b259E
ffff800000105050 _ZN4sync8spinlock17Spinlock$LT$T$GT$7acquire17hdc73fcf18f90676bE
ffff800000105060 _ZN2mm6kalloc5kfree17h171de2012cd31783E
ffff8000001051e0 _ZN2mm6kalloc6kalloc17h39d4ed118f1aece0E
ffff800000105320 _ZN2mm6kalloc6kinit117h0d650991e7d774bdE
ffff800000105360 _ZN2mm6kalloc6kinit217h5287189b6249739dE
ffff800000105370 _ZN2mm6kalloc9freerange17hdb2ec184fb9794c2E
ffff800000105420 _ZN4core3fmt9Arguments8from_str17h738fe870ec31c772E
ffff800000105440 _ZN4core3ptr11write_bytes18precondition_check17hb1855325dd131c5cE
ffff8000001054e0 _ZN4core3ptr7mut_ptr31_$LT$impl$u20$$BP$mut$u20$T$GT$7is_null17h455e7843dce96301E
ffff8000001054f0 _ZN7drivers3ide5iderw17h3f3fbb8c51f3d2a7E
ffff800000105680 _ZN7drivers3ide7ideinit17h1c1c7849906b91e5E
ffff800000105720 _ZN7drivers3ide7ideintr17hf2249485d2a45b69E
ffff800000105870 _ZN7drivers3ide7idewait17hbc765ecfff3349beE
ffff8000001058e0 _ZN7drivers3ide8idestart17h3dff686d9c729d2fE
ffff800000105b00 _ZN4core3ptr66drop_in_place$LT$sync..spinlock..SpinlockGuard$LT$$LP$$RP$$GT$$GT$17h47f8691da19f1977E
ffff800000105b20 _ZN80_$LT$sync..spinlock..SpinlockGuard$LT$T$GT$$u20$as$u20$core..ops..drop..Drop$GT$4drop17h980c05708ff72858E
ffff800000105b30 _ZN7drivers3kbd7kbdgetc17ha98c6d38f0692bddE
ffff800000105e90 _ZN7drivers3kbd7kbdintr17hf7ed91ad6f5c0ecbE
ffff800000105eb0 _ZN4sync8spinlock17Spinlock$LT$T$GT$7acquire17h1f00f3cc336b0cb1E
ffff800000105ec0 _ZN4core3fmt9Arguments8from_str17hc0ea1af4393c1093E
ffff800000105ee0 _ZN7drivers4uart8uartgetc17h75c83c66fdd30ed1E
ffff800000105f50 _ZN7drivers4uart8uartinit17hda2e5a2ad418692dE
ffff800000105f90 _ZN7drivers4uart8uartintr17hf65bb846117f8c27E
ffff800000105fb0 _ZN7drivers4uart8uartputc17h1a960dc149457137E
ffff800000106040 _ZN2fs3bio11release_buf17h61b3d461e218fca1E
ffff8000001061b0 _ZN2fs3bio3get17h4f5e2a3bcc0ba83fE
ffff8000001063d0 _ZN2fs3bio4init17h6de140f419417072E
ffff800000106570 _ZN2fs3bio4read17h4d7cf2d5db6e7c66E
ffff8000001065d0 _ZN2fs3bio5write17h5443489aff12b1ccE
ffff800000106680 _ZN2fs3bio6bcache17hf79483eef6da0d8eE
ffff800000106690 binit
ffff8000001066a0 _ZN4core3fmt9Arguments8from_str17hac31882a0dd6bc3eE
ffff8000001066c0 _ZN2fs4pipe4Pipe7is_dead17hc7bfb973fec9857fE
ffff800000106700 _ZN2fs4pipe4Pipe7is_full17hdc4186d6c8415c1cE
ffff800000106760 _ZN2fs4pipe4Pipe8is_empty17hd1741d65ef7ddbc7E
ffff800000106780 _ZN2fs4pipe4Pipe8read_pos17hf8359f9b1651541fE
ffff8000001067a0 _ZN2fs4pipe4Pipe9write_pos17hde03af5d0230137fE
ffff8000001067c0 _ZN2fs4pipe7cleanup17h551c76c696111f78E
ffff800000106860 pipealloc
ffff800000106a40 pipeclose
ffff800000106b00 piperead
ffff800000106ce0 pipewrite
ffff800000106ef0 _ZN4core3ptr7mut_ptr31_$LT$impl$u20$$BP$mut$u20$T$GT$7is_null17h0bab845822c5b8c6E
ffff800000106f00 _ZN4core5slice29_$LT$impl$u20$$u5b$T$u5d$$GT$8iter_mut17h233d6d1156669f8eE
ffff800000106f20 _ZN2fs3buf3Buf10mark_dirty17h3568bfdc2f530f36E
ffff800000106f30 _ZN2fs3buf3Buf8is_valid17hbfac4bc21ef377dbE
ffff800000106f50 _ZN2fs3buf8BufGuard6as_raw17h8dead45d6a447fc1E
ffff800000106f60 _ZN2fs3buf8BufGuard8from_raw17h564ab8cf5986fc5aE
ffff800000106fb0 _ZN61_$LT$fs..buf..BufGuard$u20$as$u20$core..ops..deref..Deref$GT$5deref17h1ee2f0805386f788E
ffff800000106fc0 _ZN64_$LT$fs..buf..BufGuard$u20$as$u20$core..ops..deref..DerefMut$GT$9deref_mut17he8008fd0007e3777E
ffff800000106fd0 _ZN4core3mem4drop17hb8319555ebbf40b2E
ffff800000106ff0 _ZN4core3ptr38drop_in_place$LT$fs..buf..BufGuard$GT$17h506ccfd56fd718c8E
ffff800000107010 _ZN59_$LT$fs..buf..BufGuard$u20$as$u20$core..ops..drop..Drop$GT$4drop17h3e1f1354de8616c0E
ffff800000107030 _ZN4core5slice4iter16IterMut$LT$T$GT$3new17h91e893c310535bb0E
ffff800000107090 _ZN4core5slice4iter16IterMut$LT$T$GT$3new17hb895e38eb6958413E
ffff8000001070f0 _ZN63_$LT$I$u20$as$u20$core..iter..traits..collect..IntoIterator$GT$9into_iter17h1a3e81a6bc458634E
ffff800000107110 _ZN63_$LT$I$u20$as$u20$core..iter..traits..collect..IntoIterator$GT$9into_iter17h62342519b826e2d1E
ffff800000107130 _ZN94_$LT$core..slice..iter..IterMut$LT$T$GT$$u20$as$u20$core..iter..traits..iterator..Iterator$GT$4next17h10d5d4603350ab7dE
ffff8000001071b0 _ZN94_$LT$core..slice..iter..IterMut$LT$T$GT$$u20$as$u20$core..iter..traits..iterator..Iterator$GT$4next17hd3db17bad2f9dd62E
ffff800000107230 _ZN2fs4file4File7is_free17h21689e2f877bd73cE
ffff800000107240 _ZN2fs4file4File8can_read17h6ebdf6b53365a6dcE
ffff800000107250 _ZN2fs4file4File9can_write17h0ef5716582471f22E
ffff800000107260 _ZN2fs4file6ftable17h340a974f1df1cf12E
ffff800000107270 filealloc
ffff800000107380 fileclose
ffff800000107530 filedup
ffff800000107610 fileinit
ffff800000107670 fileread
ffff8000001077d0 filestat
ffff800000107850 filewrite
ffff800000107bc0 _ZN4core3cmp3Ord3min17h7adc2b7acb8f621dE
ffff800000107c10 _ZN4core3cmp3Ord3min17h97ea0641c04b400eE
ffff800000107c60 _ZN4core3cmp3Ord3min17hc184c791a7cb5e3fE
ffff800000107cb0 _ZN4core3cmp3min17h700f31c028ddb799E
ffff800000107cd0 _ZN4core3cmp3min17he57edd0e5ede2c29E
ffff800000107cf0 _ZN4core3cmp3min17hf0cb74eb299448f5E
ffff800000107d10 _ZN4core3ptr7mut_ptr31_$LT$impl$u20$$BP$mut$u20$T$GT$7is_null17he4823dd2d6080653E
ffff800000107d20 _ZN4core3ptr7mut_ptr31_$LT$impl$u20$$BP$mut$u20$T$GT$7is_null17h0fce8b5eb66b12bcE
ffff800000107d30 _ZN2fs2fs4bmap17h5f4ca1eb26c64c93E
ffff800000107fa0 _ZN2fs2fs4iget17h3e59dff944d0d8afE
ffff8000001081e0 _ZN2fs2fs5Inode10mark_valid17h8db23a2fe08429f4E
ffff800000108200 _ZN2fs2fs5Inode6is_dev17h3e9a74a6c5e6e6deE
ffff800000108220 _ZN2fs2fs5Inode6is_dir17h414130de542fbe76E
ffff800000108240 _ZN2fs2fs5Inode7is_free17h2932bd0496697938E
ffff800000108250 _ZN2fs2fs5Inode8is_valid17h74003381e846bfd9E
ffff800000108270 _ZN2fs2fs5bfree17h526b9e272c69caf6E
ffff800000108470 _ZN2fs2fs5bzero17h2ef10de82f60e962E
ffff800000108500 _ZN2fs2fs5namex17h22ce941bfe54eb6bE
ffff8000001086e0 _ZN2fs2fs6balloc17h20e0ed676f2cacccE
ffff800000108a10 _ZN2fs2fs6icache17ha92497b86690542eE
ffff800000108a20 _ZN2fs2fs6itrunc17h99366a526d585b6aE
ffff800000108cd0 _ZN2fs2fs7namecmp17hb4237c11ed80abaaE
ffff800000108e60 _ZN2fs2fs8name_len17hb803f113eeb74850E
ffff800000108ee0 _ZN2fs2fs8skipelem17h187b82e149635bc9E
ffff8000001090e0 dirlookup
ffff8000001093b0 idup
ffff800000109440 iinit
ffff800000109590 ilock
ffff800000109780 iput
ffff8000001098c0 iunlock
ffff800000109960 iunlockput
ffff800000109990 iupdate
ffff800000109ac0 namei
ffff800000109b00 readi
ffff800000109f10 readsb
ffff800000109ff0 stati
ffff80000010a030 writei
ffff80000010a500 _ZN4core3ptr7mut_ptr31_$LT$impl$u20$$BP$mut$u20$T$GT$7is_null17hb3ddb547aca48965E
ffff80000010a510 _ZN4core5slice29_$LT$impl$u20$$u5b$T$u5d$$GT$8iter_mut17hec50386a805b5014E
ffff80000010a530 _ZN2fs3fsh6bblock17h296dd5924c290d7aE
ffff80000010a570 _ZN2fs3fsh6iblock17hde99ab6dad622cd2E
ffff80000010a5b0 _ZN4core5slice20copy_from_slice_impl17h985e63c3592d19baE
ffff80000010a670 _ZN4core5slice20copy_from_slice_impl17he3b06e5ea929abbcE
ffff80000010a730 _ZN4core5slice29_$LT$impl$u20$$u5b$T$u5d$$GT$15copy_from_slice17hb7c635e9b1386c7aE
ffff80000010a760 _ZN4core5slice29_$LT$impl$u20$$u5b$T$u5d$$GT$15copy_from_slice17hd7c0ebec8ca37881E
ffff80000010a790 _ZN4core5slice29_$LT$impl$u20$$u5b$T$u5d$$GT$4fill17he29fdb67d4713807E
ffff80000010a7c0 _ZN4core3ptr11write_bytes18precondition_check17h2da9935d7b978888E
ffff80000010a860 _ZN4core3ptr19copy_nonoverlapping18precondition_check17h53c949287e90c97eE
ffff80000010a9c0 _ZN4core9ub_checks23maybe_is_nonoverlapping7runtime17hc919d1fd22658ba2E
ffff80000010aaa0 _ZN76_$LT$$u5b$u8$u5d$$u20$as$u20$core..slice..specialize..SpecFill$LT$u8$GT$$GT$9spec_fill17h31a81f08a783345dE
ffff80000010aad0 _ZN4core3ptr9const_ptr33_$LT$impl$u20$$BP$const$u20$T$GT$11offset_from17h8267c55027057bcaE
ffff80000010ab20 _ZN4core5array85_$LT$impl$u20$core..ops..index..Index$LT$I$GT$$u20$for$u20$$u5b$T$u3b$$u20$N$u5d$$GT$5index17h778e4a40aa2d263aE
ffff80000010ab70 _ZN4core5array88_$LT$impl$u20$core..ops..index..IndexMut$LT$I$GT$$u20$for$u20$$u5b$T$u3b$$u20$N$u5d$$GT$9index_mut17h7dfdcbe29a0dff4eE
ffff80000010abc0 _ZN110_$LT$core..ops..range..RangeFrom$LT$usize$GT$$u20$as$u20$core..slice..index..SliceIndex$LT$$u5b$T$u5d$$GT$$GT$5index17h9529d7694552e65cE
ffff80000010ac30 _ZN110_$LT$core..ops..range..RangeFrom$LT$usize$GT$$u20$as$u20$core..slice..index..SliceIndex$LT$$u5b$T$u5d$$GT$$GT$9index_mut17hda5fc68b14990864E
ffff80000010acb0 _ZN2fs3log10write_head17h06101870a880f17fE
ffff80000010ae20 _ZN2fs3log13install_trans17hcbb8f1747f70fc52E
ffff80000010b000 _ZN2fs3log16recover_from_log17h05a12ebf948c981bE
ffff80000010b040 _ZN2fs3log3log17h77f15be608307bcaE
ffff80000010b050 _ZN2fs3log6commit17ha1843ecc7a85c69cE
ffff80000010b0b0 _ZN2fs3log9read_head17h830f188e7fcb58b7E
ffff80000010b210 _ZN2fs3log9write_log17hc577c65f60edbba2E
ffff80000010b3f0 begin_op
ffff80000010b550 end_op
ffff80000010b6a0 initlog
ffff80000010b870 log_write
ffff80000010bac0 acquiresleep
ffff80000010bb30 holdingsleep
ffff80000010bb70 initsleeplock
ffff80000010bbe0 releasesleep
ffff80000010bc30 _ZN4proc4proc10safestrcpy17h5a78cf1f8f22625eE
ffff80000010bd50 _ZN4proc4proc5sched17hd7047ee9b3e6586bE
ffff80000010bf30 _ZN4proc4proc7wakeup117h9065bc322703a3d2E
ffff80000010c030 _ZN4proc4proc9allocproc17hda3b837b21fd95c8E
ffff80000010c400 exit
ffff80000010c780 fork
ffff80000010caf0 forkret
ffff80000010cb50 growproc
ffff80000010cc90 kill
ffff80000010cdf0 pinit
ffff80000010ce40 scheduler
ffff80000010d010 sleep_proc
ffff80000010d140 userinit
ffff80000010d390 wait
ffff80000010d5a0 wakeup
ffff80000010d5f0 _ZN4core3fmt9Arguments8from_str17hb8f705a55454bf48E
ffff80000010d610 _ZN4core3ptr11write_bytes18precondition_check17hf611f6050511405aE
ffff80000010d6b0 _ZN4core3ptr19copy_nonoverlapping18precondition_check17hc300842e33eba363E
ffff80000010d810 _ZN4core4sync6atomic14compiler_fence17hcbf5eac01dc57629E
ffff80000010d890 _ZN4core3ptr7mut_ptr31_$LT$impl$u20$$BP$mut$u20$T$GT$7is_null17h03f57dc3e6709f99E
ffff80000010d8a0 _ZN4proc4exec10safestrcpy17hc6c42c6f1c07718aE
ffff80000010d9c0 _ZN4proc4exec19find_last_component17h9840ab19040079abE
ffff80000010da30 _ZN4proc4exec8c_strlen17h70dc3aa4e1eb98deE
ffff80000010dab0 _ZN4proc4exec8goto_bad17h84c8dd0bd04fbdbbE
ffff80000010db50 exec
ffff80000010ee20 _ZN4core3ptr9const_ptr33_$LT$impl$u20$$BP$const$u20$T$GT$7is_null17h79b573b8e598e469E
ffff80000010ee30 _ZN4core3ptr9const_ptr33_$LT$impl$u20$$BP$const$u20$T$GT$7is_null17he24d5d91387cb1a5E
ffff80000010ee40 _ZN63_$LT$proc..proch..Procstate$u20$as$u20$core..cmp..PartialEq$GT$2eq17h0a7bfa79b2a57029E
ffff80000010ee70 _ZN4core9ub_checks23maybe_is_nonoverlapping7runtime17h8971e1d042091ed5E
ffff80000010ef50 _ZN4core3cmp9PartialEq2ne17h26c4336987b0819aE
ffff80000010ef80 _ZN4core3ptr7mut_ptr31_$LT$impl$u20$$BP$mut$u20$T$GT$7is_null17h032f2bc53e62f1cbE
ffff80000010ef90 _ZN4core3ptr7mut_ptr31_$LT$impl$u20$$BP$mut$u20$T$GT$7is_null17h5bf49f66e86c0b38E
ffff80000010efa0 _ZN4core3ptr7mut_ptr31_$LT$impl$u20$$BP$mut$u20$T$GT$7is_null17he50afe539abf6abbE
ffff80000010efb0 _ZN4arch5lapic10microdelay17h7383c4330e7dfbc2E
ffff80000010efc0 _ZN4arch5lapic12lapicstartap17hb0d265a36f6ccbeaE
ffff80000010f480 _ZN4arch5lapic8lapiceoi17he66d4ac80eeefed8E
ffff80000010f550 _ZN4arch5lapic9lapicinit17hb6ec3e195a02453cE
ffff800000110060 _ZN4arch2vm10deallocuvm17h2317aa89dcb843ebE
ffff800000110260 _ZN4arch2vm11syscallinit17h3f6017d4e1e920c1E
ffff8000001102d0 _ZN4arch2vm6freevm17h8e44ab9c424dce7dE
ffff800000110750 _ZN4arch2vm6uva2ka17h32524b86e0d98c35E
ffff800000110820 _ZN4arch2vm7copyout17h3943c4c709ebee10E
ffff800000110ad0 _ZN4arch2vm7copyuvm17h05df8f57cd5d96a1E
ffff800000110e00 _ZN4arch2vm7inituvm17h38a2f2498b59bb3bE
ffff800000110f90 _ZN4arch2vm7loaduvm17h414a14d05424f297E
ffff800000111260 _ZN4arch2vm7seginit17h821e51a67b286a31E
ffff800000111a40 _ZN4arch2vm8allocuvm17hdf2a1d797261138aE
ffff800000111ca0 _ZN4arch2vm8kvmalloc17h00feb6d0239fbf96E
ffff800000111e70 _ZN4arch2vm8mappages17h474bd816cbe72547E
ffff800000112070 _ZN4arch2vm8setupkvm17he60bd1317c437669E
ffff800000112170 _ZN4arch2vm9clearpteu17he14e4d88b9a5f711E
ffff800000112200 _ZN4arch2vm9switchkvm17h4741e33750945baeE
ffff800000112250 _ZN4arch2vm9switchuvm17hd5a9a36c213f7ef9E
ffff800000112270 _ZN4arch2vm9walkpgdir17hfe29b2f74ebba411E
ffff800000112830 _ZN61_$LT$arch..mmu..segdesc$u20$as$u20$core..default..Default$GT$7default17h7d321671e9105ad4E
ffff800000112860 _ZN4core5slice3raw14from_raw_parts17h4cfd2821ffd8638aE
ffff8000001128b0 _ZN4core5slice3raw14from_raw_parts18precondition_check17h49063e5baf40b59cE
ffff8000001129a0 _ZN4arch5traps6mkgate17h3d79877ad706c904E
ffff800000112ba0 _ZN4arch5traps6tvinit17h3936d223195c7483E
ffff800000112d50 _ZN4arch5traps7idtinit17h535566fbfd4b1f6cE
ffff800000112dc0 trap
ffff800000112f90 _ZN107_$LT$core..ops..range..RangeInclusive$LT$T$GT$$u20$as$u20$core..iter..range..RangeInclusiveIteratorImpl$GT$9spec_next17he06be059b31238f6E
ffff800000113060 _ZN4core3ops5range25RangeInclusive$LT$Idx$GT$3new17he6cce9bc6d585134E
ffff800000113080 _ZN4core4iter5range101_$LT$impl$u20$core..iter..traits..iterator..Iterator$u20$for$u20$core..ops..range..Range$LT$A$GT$$GT$4next17h26e5d21c32f75122E
ffff8000001130a0 _ZN4core4iter5range101_$LT$impl$u20$core..iter..traits..iterator..Iterator$u20$for$u20$core..ops..range..Range$LT$A$GT$$GT$4next17h53cc367ccb5ae1d5E
ffff8000001130c0 _ZN4core4iter5range101_$LT$impl$u20$core..iter..traits..iterator..Iterator$u20$for$u20$core..ops..range..Range$LT$A$GT$$GT$4next17he280862504be7a73E
ffff8000001130e0 _ZN4core4iter5range110_$LT$impl$u20$core..iter..traits..iterator..Iterator$u20$for$u20$core..ops..range..RangeInclusive$LT$A$GT$$GT$4next17haa2f411595ae3948E
ffff800000113100 _ZN63_$LT$I$u20$as$u20$core..iter..traits..collect..IntoIterator$GT$9into_iter17h9d760cc2fc705fefE
ffff800000113110 _ZN63_$LT$I$u20$as$u20$core..iter..traits..collect..IntoIterator$GT$9into_iter17hb0b77fc86de5a964E
ffff800000113120 _ZN63_$LT$I$u20$as$u20$core..iter..traits..collect..IntoIterator$GT$9into_iter17hbdf0c4a598f0935dE
ffff800000113140 _ZN63_$LT$I$u20$as$u20$core..iter..traits..collect..IntoIterator$GT$9into_iter17hf189e18918530823E
ffff800000113150 _ZN89_$LT$core..ops..range..Range$LT$T$GT$$u20$as$u20$core..iter..range..RangeIteratorImpl$GT$9spec_next17h9c019dfa38382ae0E
ffff8000001131d0 _ZN89_$LT$core..ops..range..Range$LT$T$GT$$u20$as$u20$core..iter..range..RangeIteratorImpl$GT$9spec_next17hc516f24e496c4e62E
ffff800000113250 _ZN89_$LT$core..ops..range..Range$LT$T$GT$$u20$as$u20$core..iter..range..RangeIteratorImpl$GT$9spec_next17hf74b4d3dd8eb67f0E
ffff8000001132e0 _ZN4core3ptr7mut_ptr31_$LT$impl$u20$$BP$mut$u20$T$GT$7is_null17h06854bf4be2331cbE
ffff8000001132f0 _ZN4core3ptr7mut_ptr31_$LT$impl$u20$$BP$mut$u20$T$GT$7is_null17h7677ec2039ca147aE
ffff800000113300 _ZN4core3ptr7mut_ptr31_$LT$impl$u20$$BP$mut$u20$T$GT$7is_null17he0fe5e1d702a1a7bE
ffff800000113310 _ZN47_$LT$i32$u20$as$u20$core..iter..range..Step$GT$17forward_unchecked17hbc94ebd6f1524f49E
ffff8000001133a0 _ZN47_$LT$u32$u20$as$u20$core..iter..range..Step$GT$17forward_unchecked17h3e64f4669031ed2aE
ffff8000001133f0 _ZN49_$LT$usize$u20$as$u20$core..iter..range..Step$GT$17forward_unchecked17h318c093c2c5d6752E
ffff800000113440 _ZN4core4hint21unreachable_unchecked18precondition_check17hd34f9c69fd39741aE
ffff800000113480 _ZN4core3num21_$LT$impl$u20$u32$GT$13unchecked_add18precondition_check17h108fdefa455497eeE
ffff8000001134e0 _ZN4core3num23_$LT$impl$u20$usize$GT$13unchecked_add18precondition_check17hb4762b8157e69143E
ffff800000113540 _ZN4arch2mp3sum17h151b758667d46c5dE
ffff8000001135f0 _ZN4arch2mp6memcmp17h6ca9248cd95a6439E
ffff8000001136a0 _ZN4arch2mp6mpinit17hd66631c406e8e541E
ffff8000001139d0 _ZN4arch2mp8mpconfig17h11ca295286e0bc81E
ffff800000113b40 _ZN4arch2mp8mpsearch17h90f88d955c2c2e3fE
ffff800000113d30 _ZN4arch2mp9mpsearch117haf776691235bf326E
ffff800000113e60 _ZN4core3cmp5impls69_$LT$impl$u20$core..cmp..PartialEq$LT$$RF$B$GT$$u20$for$u20$$RF$A$GT$2eq17h2a0f23c64e72550aE
ffff800000113ea0 _ZN4arch6ioapic10ioapicinit17hef086eb0091f386bE
ffff8000001141f0 _ZN4core3ptr7mut_ptr31_$LT$impl$u20$$BP$mut$u20$T$GT$7is_null17haf70dbb0a30f4d32E
ffff800000114200 _ZN4core3ptr7mut_ptr31_$LT$impl$u20$$BP$mut$u20$T$GT$7is_null17hc93070ec54cdb729E
ffff800000114210 _ZN4core3ptr9const_ptr33_$LT$impl$u20$$BP$const$u20$T$GT$13is_aligned_to17h088100a6c2215b74E
ffff8000001142f0 _ZN4core3ptr13read_volatile17ha825159503994601E
ffff800000114340 _ZN4core3ptr14write_volatile17h9666a2f69ac691a8E
ffff800000114390 _ZN4core3ptr14write_volatile17hd9a9a571e56cbd65E
ffff8000001143e0 _ZN4core3ptr11write_bytes18precondition_check17ha4d1b82bce32d8b5E
ffff800000114480 _ZN4core3ptr13read_volatile18precondition_check17hf86ffb55dffe9d55E
ffff8000001144e0 _ZN4core3ptr14write_volatile18precondition_check17hf1078ea751911849E
ffff800000114550 _ZN4core3ptr19copy_nonoverlapping18precondition_check17h4cddb172bab17027E
ffff8000001146b0 _ZN4core9ub_checks23maybe_is_nonoverlapping7runtime17he596b6db4549097fE
ffff800000114790 _ZN4core5slice4iter87_$LT$impl$u20$core..iter..traits..collect..IntoIterator$u20$for$u20$$RF$$u5b$T$u5d$$GT$9into_iter17hee81b2d40dd005a5E
ffff8000001147e0 _ZN91_$LT$core..slice..iter..Iter$LT$T$GT$$u20$as$u20$core..iter..traits..iterator..Iterator$GT$4next17hf27ff79502f8ea4cE
ffff800000114860 _ZN4core5slice3cmp81_$LT$impl$u20$core..cmp..PartialEq$LT$$u5b$U$u5d$$GT$$u20$for$u20$$u5b$T$u5d$$GT$2eq17he84450df87f2389fE
ffff8000001148d0 _ZN63_$LT$A$u20$as$u20$core..slice..cmp..SlicePartialEq$LT$B$GT$$GT$17equal_same_length17hd5ac473759675a51E
ffff800000114910 _ZN4core3fmt9Arguments8from_str17h9fbaceec55ccf69aE
ffff800000115560 _ZN7syscall8SYSCALLS17h4cff036743f9acd3E
ffff800000115da0 _ZN7drivers3kbd6CTLMAP17ha035de66b890589bE
ffff800000115ea0 _ZN7drivers3kbd8SHIFTMAP17h757cffd3cec1a8a2E
ffff800000115fa0 _ZN7drivers3kbd9NORMALMAP17h6ecb56c8566accccE
ffff8000001160a0 _ZN7drivers3kbd10TOGGLECODE17hf6d824e05fb0e414E
ffff800000116530 _ZN7drivers3kbd9SHIFTCODE17h749cdd7d9e1ce98cE
ffff800000118ed4 _binary_initcode_start
ffff800000118f14 _binary_entryother_start
ffff800000118f14 _binary_initcode_end
ffff800000118f86 _binary_entryother_end
ffff80000011a000 vectors
ffff80000011b000 edata
ffff80000011b000 end
ffff80000011b018 _ZN7console10INPUT_LOCK17h40eacd84affb75f9E
ffff80000011b028 _ZN7console3CRT17h63e7a2d07b7aac38E
ffff80000011b030 _ZN2mm6kalloc4kmem17h91504961ea2355feE
ffff80000011b050 _ZN7drivers3ide8IDE_LOCK17h030603bc744d7c04E
ffff80000011b060 _ZN4proc4proc13FORKRET_FIRST17h85a37f4a1ee08c83E
ffff80000011b064 _ZN4proc4proc7NEXTPID17h30734f1a1fde0de0E
ffff80000011b068 _ZN6kernel4glue11INT_ENABLED17hcbacb1a98039f518E
ffff80000011b06c _ZN6kernel4glue9CLI_DEPTH17h850488a8efc50a1cE
ffff80000011b070 _ZN7console5INPUT17h0dd8e5103e1b101fE
ffff80000011b108 _ZN7drivers3ide10HAVE_DISK117h8523e9014c0625c0E
ffff80000011b110 _ZN7drivers3ide9IDE_QUEUE17h568d101002ca1d49E
ffff80000011b118 _ZN7drivers3kbd11SHIFT_STATE17h69d778b77666643dE
ffff80000011b11c _ZN7drivers4uart11UART_EXISTS17hedc127a41ea1cbf5E
ffff80000011b120 _ZN2fs3bio14BCACHE_STORAGE17hfd06a3498a1149daE
ffff8000001203e0 DEVSW
ffff800000120480 _ZN2fs4file14FTABLE_STORAGE17h49ef606cc580889fE
ffff800000121490 _ZN2fs2fs14ICACHE_STORAGE17ha905e2d00d9ceb2eE
ffff800000123da0 _ZN2fs2fs2SB17h6c3ce0ed77bc3666E
ffff800000123dc0 _ZN2fs3log11LOG_STORAGE17h8ca771ee579882afE
ffff800000123ec0 _ZN4proc4proc8INITPROC17h6e0c1e908e0c82e1E
ffff800000123ec8 ptable
ffff800000127730 lapic
ffff800000127738 _ZN4arch2vm5kpdpt17h73ce6b96c42e9e22E
ffff800000127740 _ZN4arch2vm5kpml417h524781e226ab5fdbE
ffff800000127748 idtt
ffff800000127750 ticks
ffff800000127758 tickslock
ffff800000127760 cpus
ffff8000001277a0 ioapicid
ffff8000001277a4 ncpu
ffff8000001277a8 _ZN4arch6ioapic10IOAPIC_PTR17h14887e06e61b9908E
